ARM Linker, RVCT4.0 [Build 400] 

==============================================================================

Image Symbol Table

    Local Symbols

    Symbol Name                              Value     Ov Type        Size  Object(Section)

    vectors                                  0x00000000   Section       44  vectors.o(vectors)
    ../../angel/boardlib.s                   0x00000000   Number         0  boardinit1.o ABSOLUTE
    ../../angel/boardlib.s                   0x00000000   Number         0  boardinit2.o ABSOLUTE
    ../../angel/boardlib.s                   0x00000000   Number         0  boardinit3.o ABSOLUTE
    ../../angel/boardlib.s                   0x00000000   Number         0  boardshut.o ABSOLUTE
    ../../angel/handlers.s                   0x00000000   Number         0  __scatter_zi.o ABSOLUTE
    ../../angel/handlers.s                   0x00000000   Number         0  __scatter_copy.o ABSOLUTE
    ../../angel/kernel.s                     0x00000000   Number         0  rtentry.o ABSOLUTE
    ../../angel/kernel.s                     0x00000000   Number         0  rtexit2.o ABSOLUTE
    ../../angel/kernel.s                     0x00000000   Number         0  rtexit.o ABSOLUTE
    ../../angel/kernel.s                     0x00000000   Number         0  rtentry4.o ABSOLUTE
    ../../angel/kernel.s                     0x00000000   Number         0  rtentry2.o ABSOLUTE
    ../../angel/rt.s                         0x00000000   Number         0  rt_raise.o ABSOLUTE
    ../../angel/rt.s                         0x00000000   Number         0  rt_div0.o ABSOLUTE
    ../../angel/rt.s                         0x00000000   Number         0  aeabi_idiv0_sigfpe.o ABSOLUTE
    ../../angel/rt.s                         0x00000000   Number         0  aeabi_idiv0.o ABSOLUTE
    ../../angel/scatter.s                    0x00000000   Number         0  __scatter.o ABSOLUTE
    ../../angel/startup.s                    0x00000000   Number         0  __main.o ABSOLUTE
    ../../angel/sys.s                        0x00000000   Number         0  libspace.o ABSOLUTE
    ../../angel/sys.s                        0x00000000   Number         0  sys_stackheap_outer.o ABSOLUTE
    ../../angel/sys.s                        0x00000000   Number         0  use_no_semi.o ABSOLUTE
    ../../angel/sysapp.c                     0x00000000   Number         0  sys_command.o ABSOLUTE
    ../../angel/sysapp.c                     0x00000000   Number         0  sys_wrch.o ABSOLUTE
    ../../armsys.c                           0x00000000   Number         0  no_argv.o ABSOLUTE
    ../../armsys.c                           0x00000000   Number         0  _get_argv_nomalloc.o ABSOLUTE
    ../../armsys.c                           0x00000000   Number         0  argv_veneer.o ABSOLUTE
    ../../armsys.c                           0x00000000   Number         0  argv_veneer.o ABSOLUTE
    ../../division.s                         0x00000000   Number         0  rtudiv10.o ABSOLUTE
    ../../division.s                         0x00000000   Number         0  aeabi_sdiv_div0.o ABSOLUTE
    ../../division.s                         0x00000000   Number         0  aeabi_sdiv.o ABSOLUTE
    ../../divrt.s                            0x00000000   Number         0  divrt_9e_div0.o ABSOLUTE
    ../../divrt.s                            0x00000000   Number         0  divrt_9e.o ABSOLUTE
    ../../fpinit.s                           0x00000000   Number         0  fpinit.o ABSOLUTE
    ../../heapalloc.c                        0x00000000   Number         0  hrguard.o ABSOLUTE
    ../../libinit.s                          0x00000000   Number         0  libshutdown.o ABSOLUTE
    ../../libinit.s                          0x00000000   Number         0  libshutdown2.o ABSOLUTE
    ../../libinit.s                          0x00000000   Number         0  libinit2.o ABSOLUTE
    ../../libinit.s                          0x00000000   Number         0  libinit.o ABSOLUTE
    ../../memcpset.s                         0x00000000   Number         0  rt_memcpy_w.o ABSOLUTE
    ../../misc.s                             0x00000000   Number         0  printf_stubs.o ABSOLUTE
    ../../printf.c                           0x00000000   Number         0  __printf_nopercent.o ABSOLUTE
    ../../printf.c                           0x00000000   Number         0  __2printf.o ABSOLUTE
    ../../printf.c                           0x00000000   Number         0  noretval__2printf.o ABSOLUTE
    ../../printf.c                           0x00000000   Number         0  __printf.o ABSOLUTE
    ../../printf.c                           0x00000000   Number         0  _printf_pad.o ABSOLUTE
    ../../printf.c                           0x00000000   Number         0  _printf_dec.o ABSOLUTE
    ../../printf.c                           0x00000000   Number         0  _printf_hex_ll.o ABSOLUTE
    ../../printf.c                           0x00000000   Number         0  _printf_hex_int.o ABSOLUTE
    ../../printf.c                           0x00000000   Number         0  _printf_hex_int_ll.o ABSOLUTE
    ../../printf.c                           0x00000000   Number         0  _printf_intcommon.o ABSOLUTE
    ../../printf.c                           0x00000000   Number         0  _printf_char_common.o ABSOLUTE
    ../../printf.c                           0x00000000   Number         0  __printf_flags.o ABSOLUTE
    ../../printf.c                           0x00000000   Number         0  __printf_ss.o ABSOLUTE
    ../../printf.c                           0x00000000   Number         0  __printf_flags_ss.o ABSOLUTE
    ../../printf.c                           0x00000000   Number         0  __printf_wp.o ABSOLUTE
    ../../printf.c                           0x00000000   Number         0  __printf_flags_wp.o ABSOLUTE
    ../../printf.c                           0x00000000   Number         0  __printf_ss_wp.o ABSOLUTE
    ../../printf.c                           0x00000000   Number         0  __printf_flags_ss_wp.o ABSOLUTE
    ../../printf.c                           0x00000000   Number         0  _printf_hex_int_ll_ptr.o ABSOLUTE
    ../../printf.c                           0x00000000   Number         0  _printf_hex_ll_ptr.o ABSOLUTE
    ../../printf.c                           0x00000000   Number         0  _printf_hex_int_ptr.o ABSOLUTE
    ../../printf.c                           0x00000000   Number         0  _printf_hex_ptr.o ABSOLUTE
    ../../printf_percent.s                   0x00000000   Number         0  _printf_d.o ABSOLUTE
    ../../printf_percent.s                   0x00000000   Number         0  _printf_x.o ABSOLUTE
    ../../printf_percent.s                   0x00000000   Number         0  _printf_u.o ABSOLUTE
    ../../printf_percent.s                   0x00000000   Number         0  _printf_percent.o ABSOLUTE
    ../../printf_percent.s                   0x00000000   Number         0  _printf_percent_end.o ABSOLUTE
    ../../signal.c                           0x00000000   Number         0  __raise.o ABSOLUTE
    ../../signal.c                           0x00000000   Number         0  defsig_general.o ABSOLUTE
    ../../signal.c                           0x00000000   Number         0  defsig_fpe_outer.o ABSOLUTE
    ../../signal.c                           0x00000000   Number         0  defsig_fpe_formal.o ABSOLUTE
    ../../signal.c                           0x00000000   Number         0  defsig_exit.o ABSOLUTE
    ../../signal.c                           0x00000000   Number         0  defsig_fpe_inner.o ABSOLUTE
    ../../signal.c                           0x00000000   Number         0  defsig_other.o ABSOLUTE
    ../../signal.c                           0x00000000   Number         0  defsig_abrt_inner.o ABSOLUTE
    ../../signal.c                           0x00000000   Number         0  defsig_rtred_inner.o ABSOLUTE
    ../../signal.c                           0x00000000   Number         0  defsig_rtmem_inner.o ABSOLUTE
    ../../signal.c                           0x00000000   Number         0  defsig_segv_inner.o ABSOLUTE
    ../../signal.c                           0x00000000   Number         0  defsig_rtmem_outer.o ABSOLUTE
    ../../signal.c                           0x00000000   Number         0  defsig_rtmem_formal.o ABSOLUTE
    ../../signal.c                           0x00000000   Number         0  defsig_cppl_inner.o ABSOLUTE
    ../../signal.c                           0x00000000   Number         0  defsig_pvfn_inner.o ABSOLUTE
    ../../signal.c                           0x00000000   Number         0  defsig_stak_inner.o ABSOLUTE
    ../../signal.s                           0x00000000   Number         0  defsig.o ABSOLUTE
    ../../stdio.c                            0x00000000   Number         0  ferror_locked.o ABSOLUTE
    ../../stdio.c                            0x00000000   Number         0  ferror.o ABSOLUTE
    ../../stdlib.c                           0x00000000   Number         0  exit.o ABSOLUTE
    ITCM_BASE                                0x00000000   Number         0  vectors.o ABSOLUTE
    ITCM_BASE                                0x00000000   Number         0  copier.o ABSOLUTE
    ITCM_BASE                                0x00000000   Number         0  processor.o ABSOLUTE
    ITCM_BASE                                0x00000000   Number         0  start.o ABSOLUTE
    ITCM_FAILURE                             0x00000000   Number         0  copier.o ABSOLUTE
    ITCM_FAILURE                             0x00000000   Number         0  processor.o ABSOLUTE
    ITCM_FAILURE                             0x00000000   Number         0  vectors.o ABSOLUTE
    ITCM_FAILURE                             0x00000000   Number         0  start.o ABSOLUTE
    IVB_IMAGE_STARTLENGTH                    0x00000000   Number         0  vectors.o ABSOLUTE
    IVB_IMAGE_STARTLENGTH                    0x00000000   Number         0  copier.o ABSOLUTE
    IVB_IMAGE_STARTLENGTH                    0x00000000   Number         0  start.o ABSOLUTE
    IVB_IMAGE_STARTLENGTH                    0x00000000   Number         0  processor.o ABSOLUTE
    SYSC_TUBE                                0x00000000   Number         0  start.o ABSOLUTE
    SYS_CTRL_TUBE                            0x00000000   Number         0  vectors.o ABSOLUTE
    SYS_CTRL_TUBE                            0x00000000   Number         0  copier.o ABSOLUTE
    SYS_CTRL_TUBE                            0x00000000   Number         0  processor.o ABSOLUTE
    SYS_CTRL_TUBE                            0x00000000   Number         0  start.o ABSOLUTE
    chipnumbering.c                          0x00000000   Number         0  chipnumbering.o ABSOLUTE
    copier.s                                 0x00000000   Number         0  copier.o ABSOLUTE
    dc.s                                     0x00000000   Number         0  dc.o ABSOLUTE
    dma.c                                    0x00000000   Number         0  dma.o ABSOLUTE
    embed_uish.s                             0x00000000   Number         0  embed_uish.o ABSOLUTE
    eth_link.c                               0x00000000   Number         0  eth_link.o ABSOLUTE
    flood_fill.c                             0x00000000   Number         0  flood_fill.o ABSOLUTE
    flood_sender.c                           0x00000000   Number         0  flood_sender.o ABSOLUTE
    globals.c                                0x00000000   Number         0  globals.o ABSOLUTE
    interrupt_service_routines.c             0x00000000   Number         0  interrupt_service_routines.o ABSOLUTE
    ivb.c                                    0x00000000   Number         0  ivb.o ABSOLUTE
    leds.c                                   0x00000000   Number         0  leds.o ABSOLUTE
    main.c                                   0x00000000   Number         0  main.o ABSOLUTE
    peripheral_inits.c                       0x00000000   Number         0  peripheral_inits.o ABSOLUTE
    phy.c                                    0x00000000   Number         0  phy.o ABSOLUTE
    pl340.c                                  0x00000000   Number         0  pl340.o ABSOLUTE
    poker.c                                  0x00000000   Number         0  poker.o ABSOLUTE
    processor.s                              0x00000000   Number         0  processor.o ABSOLUTE
    ram_test.s                               0x00000000   Number         0  ram_test.o ABSOLUTE
    reg_test.c                               0x00000000   Number         0  reg_test.o ABSOLUTE
    start.s                                  0x00000000   Number         0  start.o ABSOLUTE
    testers.c                                0x00000000   Number         0  testers.o ABSOLUTE
    vectors.s                                0x00000000   Number         0  vectors.o ABSOLUTE
    DMA_TRANSFER_ACTIVE                      0x00000001   Number         0  processor.o ABSOLUTE
    DMA_TRANSFER_ACTIVE                      0x00000001   Number         0  copier.o ABSOLUTE
    DMA_TRANSFER_ACTIVE                      0x00000001   Number         0  vectors.o ABSOLUTE
    DMA_TRANSFER_ACTIVE                      0x00000001   Number         0  start.o ABSOLUTE
    DTCM_FAILURE                             0x00000001   Number         0  processor.o ABSOLUTE
    DTCM_FAILURE                             0x00000001   Number         0  vectors.o ABSOLUTE
    DTCM_FAILURE                             0x00000001   Number         0  start.o ABSOLUTE
    DTCM_FAILURE                             0x00000001   Number         0  copier.o ABSOLUTE
    DMA_TRANSFER_PAUSED                      0x00000002   Number         0  processor.o ABSOLUTE
    DMA_TRANSFER_PAUSED                      0x00000002   Number         0  start.o ABSOLUTE
    DMA_TRANSFER_PAUSED                      0x00000002   Number         0  copier.o ABSOLUTE
    DMA_TRANSFER_PAUSED                      0x00000002   Number         0  vectors.o ABSOLUTE
    DMA_CTRL_ADRS                            0x00000004   Number         0  vectors.o ABSOLUTE
    DMA_CTRL_ADRS                            0x00000004   Number         0  copier.o ABSOLUTE
    DMA_CTRL_ADRS                            0x00000004   Number         0  processor.o ABSOLUTE
    DMA_CTRL_ADRS                            0x00000004   Number         0  start.o ABSOLUTE
    IVB_IMAGE_LENGTH                         0x00000004   Number         0  vectors.o ABSOLUTE
    IVB_IMAGE_LENGTH                         0x00000004   Number         0  copier.o ABSOLUTE
    IVB_IMAGE_LENGTH                         0x00000004   Number         0  processor.o ABSOLUTE
    IVB_IMAGE_LENGTH                         0x00000004   Number         0  start.o ABSOLUTE
    SERIAL_SO                                0x00000004   Number         0  start.o ABSOLUTE
    SYS_CTRL_CPU_DISABLE                     0x00000004   Number         0  processor.o ABSOLUTE
    SYS_CTRL_CPU_DISABLE                     0x00000004   Number         0  start.o ABSOLUTE
    SYS_CTRL_CPU_DISABLE                     0x00000004   Number         0  vectors.o ABSOLUTE
    SYS_CTRL_CPU_DISABLE                     0x00000004   Number         0  copier.o ABSOLUTE
    WATCHDOG_RESET_CODE                      0x00000004   Number         0  start.o ABSOLUTE
    WATCHDOG_RESET_CODE                      0x00000004   Number         0  vectors.o ABSOLUTE
    WATCHDOG_RESET_CODE                      0x00000004   Number         0  processor.o ABSOLUTE
    WATCHDOG_RESET_CODE                      0x00000004   Number         0  copier.o ABSOLUTE
    DETECTED_SDRAM_INFO_SIZE                 0x00000008   Number         0  start.o ABSOLUTE
    DETECTED_SDRAM_INFO_SIZE                 0x00000008   Number         0  processor.o ABSOLUTE
    DETECTED_SDRAM_INFO_SIZE                 0x00000008   Number         0  copier.o ABSOLUTE
    DETECTED_SDRAM_INFO_SIZE                 0x00000008   Number         0  vectors.o ABSOLUTE
    DMA_CTRL_ADRT                            0x00000008   Number         0  start.o ABSOLUTE
    DMA_CTRL_ADRT                            0x00000008   Number         0  processor.o ABSOLUTE
    DMA_CTRL_ADRT                            0x00000008   Number         0  copier.o ABSOLUTE
    DMA_CTRL_ADRT                            0x00000008   Number         0  vectors.o ABSOLUTE
    IVB_IMAGE_EXECUTE_ADDR                   0x00000008   Number         0  start.o ABSOLUTE
    IVB_IMAGE_EXECUTE_ADDR                   0x00000008   Number         0  copier.o ABSOLUTE
    IVB_IMAGE_EXECUTE_ADDR                   0x00000008   Number         0  vectors.o ABSOLUTE
    IVB_IMAGE_EXECUTE_ADDR                   0x00000008   Number         0  processor.o ABSOLUTE
    SERIAL_SI                                0x00000008   Number         0  start.o ABSOLUTE
    DMA_CTRL_DESC                            0x0000000c   Number         0  start.o ABSOLUTE
    DMA_CTRL_DESC                            0x0000000c   Number         0  vectors.o ABSOLUTE
    DMA_CTRL_DESC                            0x0000000c   Number         0  copier.o ABSOLUTE
    DMA_CTRL_DESC                            0x0000000c   Number         0  processor.o ABSOLUTE
    UNEXPECTED_EXCEPTION_HIGH                0x0000000c   Number         0  start.o ABSOLUTE
    UNEXPECTED_EXCEPTION_HIGH                0x0000000c   Number         0  vectors.o ABSOLUTE
    UNEXPECTED_EXCEPTION_HIGH                0x0000000c   Number         0  copier.o ABSOLUTE
    UNEXPECTED_EXCEPTION_HIGH                0x0000000c   Number         0  processor.o ABSOLUTE
    UNEXPECTED_EXCEPTION_LOW                 0x0000000d   Number         0  start.o ABSOLUTE
    UNEXPECTED_EXCEPTION_LOW                 0x0000000d   Number         0  processor.o ABSOLUTE
    UNEXPECTED_EXCEPTION_LOW                 0x0000000d   Number         0  vectors.o ABSOLUTE
    UNEXPECTED_EXCEPTION_LOW                 0x0000000d   Number         0  copier.o ABSOLUTE
    MAILBOX_SIZE                             0x00000010   Number         0  vectors.o ABSOLUTE
    MAILBOX_SIZE                             0x00000010   Number         0  processor.o ABSOLUTE
    MAILBOX_SIZE                             0x00000010   Number         0  copier.o ABSOLUTE
    MAILBOX_SIZE                             0x00000010   Number         0  start.o ABSOLUTE
    PL340_CONFIG_REFRESH_PERIOD              0x00000010   Number         0  vectors.o ABSOLUTE
    PL340_CONFIG_REFRESH_PERIOD              0x00000010   Number         0  copier.o ABSOLUTE
    PL340_CONFIG_REFRESH_PERIOD              0x00000010   Number         0  start.o ABSOLUTE
    PL340_CONFIG_REFRESH_PERIOD              0x00000010   Number         0  processor.o ABSOLUTE
    SERIAL_CLK                               0x00000010   Number         0  start.o ABSOLUTE
    IRQ_MODE                                 0x00000012   Number         0  start.o ABSOLUTE
    IRQ_MODE                                 0x00000012   Number         0  vectors.o ABSOLUTE
    IRQ_MODE                                 0x00000012   Number         0  processor.o ABSOLUTE
    IRQ_MODE                                 0x00000012   Number         0  copier.o ABSOLUTE
    NUMBEROFCORES                            0x00000012   Number         0  start.o ABSOLUTE
    NUMBEROFCORES                            0x00000012   Number         0  vectors.o ABSOLUTE
    NUMBEROFCORES                            0x00000012   Number         0  processor.o ABSOLUTE
    NUMBEROFCORES                            0x00000012   Number         0  copier.o ABSOLUTE
    SVC_MODE                                 0x00000013   Number         0  start.o ABSOLUTE
    SVC_MODE                                 0x00000013   Number         0  vectors.o ABSOLUTE
    SVC_MODE                                 0x00000013   Number         0  processor.o ABSOLUTE
    SVC_MODE                                 0x00000013   Number         0  copier.o ABSOLUTE
    DMAC_STATUS                              0x00000014   Number         0  start.o ABSOLUTE
    DMA_CTRL_STAT                            0x00000014   Number         0  processor.o ABSOLUTE
    DMA_CTRL_STAT                            0x00000014   Number         0  start.o ABSOLUTE
    DMA_CTRL_STAT                            0x00000014   Number         0  vectors.o ABSOLUTE
    DMA_CTRL_STAT                            0x00000014   Number         0  copier.o ABSOLUTE
    DMA_CTRL_CRCC                            0x0000001c   Number         0  start.o ABSOLUTE
    DMA_CTRL_CRCC                            0x0000001c   Number         0  vectors.o ABSOLUTE
    DMA_CTRL_CRCC                            0x0000001c   Number         0  processor.o ABSOLUTE
    DMA_CTRL_CRCC                            0x0000001c   Number         0  copier.o ABSOLUTE
    ETH_PARAMS_SIZE                          0x00000020   Number         0  vectors.o ABSOLUTE
    ETH_PARAMS_SIZE                          0x00000020   Number         0  start.o ABSOLUTE
    ETH_PARAMS_SIZE                          0x00000020   Number         0  processor.o ABSOLUTE
    ETH_PARAMS_SIZE                          0x00000020   Number         0  copier.o ABSOLUTE
    SERIAL_NCS                               0x00000020   Number         0  start.o ABSOLUTE
    unexpected_exception_low                 0x00000020   ARM Code       0  vectors.o(vectors)
    .ARM.Collect$$_printf_percent$$00000000  0x0000002c   Section        0  _printf_percent.o(.ARM.Collect$$_printf_percent$$00000000)
    .ARM.Collect$$_printf_percent$$00000009  0x0000002c   Section        8  _printf_d.o(.ARM.Collect$$_printf_percent$$00000009)
    SYS_CTRL_RESET_CODE                      0x00000030   Number         0  vectors.o ABSOLUTE
    SYS_CTRL_RESET_CODE                      0x00000030   Number         0  copier.o ABSOLUTE
    SYS_CTRL_RESET_CODE                      0x00000030   Number         0  processor.o ABSOLUTE
    SYS_CTRL_RESET_CODE                      0x00000030   Number         0  start.o ABSOLUTE
    .ARM.Collect$$_printf_percent$$0000000A  0x00000034   Section        8  _printf_u.o(.ARM.Collect$$_printf_percent$$0000000A)
    SERIAL_OE                                0x00000038   Number         0  start.o ABSOLUTE
    SYSC_MISC_C                              0x00000038   Number         0  start.o ABSOLUTE
    SYS_CTRL_MISC_CONTROL                    0x00000038   Number         0  start.o ABSOLUTE
    SYS_CTRL_MISC_CONTROL                    0x00000038   Number         0  processor.o ABSOLUTE
    SYS_CTRL_MISC_CONTROL                    0x00000038   Number         0  copier.o ABSOLUTE
    SYS_CTRL_MISC_CONTROL                    0x00000038   Number         0  vectors.o ABSOLUTE
    .ARM.Collect$$_printf_percent$$0000000C  0x0000003c   Section        8  _printf_x.o(.ARM.Collect$$_printf_percent$$0000000C)
    FIQ_OFF                                  0x00000040   Number         0  vectors.o ABSOLUTE
    FIQ_OFF                                  0x00000040   Number         0  start.o ABSOLUTE
    FIQ_OFF                                  0x00000040   Number         0  copier.o ABSOLUTE
    FIQ_OFF                                  0x00000040   Number         0  processor.o ABSOLUTE
    SYSC_IO_PORT                             0x00000040   Number         0  start.o ABSOLUTE
    SYS_CTRL_IO_PORT                         0x00000040   Number         0  copier.o ABSOLUTE
    SYS_CTRL_IO_PORT                         0x00000040   Number         0  vectors.o ABSOLUTE
    SYS_CTRL_IO_PORT                         0x00000040   Number         0  start.o ABSOLUTE
    SYS_CTRL_IO_PORT                         0x00000040   Number         0  processor.o ABSOLUTE
    .ARM.Collect$$_printf_percent$$00000017  0x00000044   Section        8  _printf_percent_end.o(.ARM.Collect$$_printf_percent$$00000017)
    SYSC_IO_DIR                              0x00000044   Number         0  start.o ABSOLUTE
    SYS_CTRL_IO_DIRECTION                    0x00000044   Number         0  start.o ABSOLUTE
    SYS_CTRL_IO_DIRECTION                    0x00000044   Number         0  processor.o ABSOLUTE
    SYS_CTRL_IO_DIRECTION                    0x00000044   Number         0  vectors.o ABSOLUTE
    SYS_CTRL_IO_DIRECTION                    0x00000044   Number         0  copier.o ABSOLUTE
    SYSC_IO_IN                               0x00000048   Number         0  start.o ABSOLUTE
    SYSC_IO_SET                              0x00000048   Number         0  start.o ABSOLUTE
    SYS_CTRL_SET_IO                          0x00000048   Number         0  processor.o ABSOLUTE
    SYS_CTRL_SET_IO                          0x00000048   Number         0  copier.o ABSOLUTE
    SYS_CTRL_SET_IO                          0x00000048   Number         0  vectors.o ABSOLUTE
    SYS_CTRL_SET_IO                          0x00000048   Number         0  start.o ABSOLUTE
    .ARM.Collect$$libinit$$00000000          0x0000004c   Section        6  libinit.o(.ARM.Collect$$libinit$$00000000)
    SYSC_IO_CLR                              0x0000004c   Number         0  start.o ABSOLUTE
    SYS_CTRL_CLEAR_IO                        0x0000004c   Number         0  processor.o ABSOLUTE
    SYS_CTRL_CLEAR_IO                        0x0000004c   Number         0  copier.o ABSOLUTE
    SYS_CTRL_CLEAR_IO                        0x0000004c   Number         0  vectors.o ABSOLUTE
    SYS_CTRL_CLEAR_IO                        0x0000004c   Number         0  start.o ABSOLUTE
    SYS_CTRL_PLL1                            0x00000050   Number         0  processor.o ABSOLUTE
    SYS_CTRL_PLL1                            0x00000050   Number         0  vectors.o ABSOLUTE
    SYS_CTRL_PLL1                            0x00000050   Number         0  start.o ABSOLUTE
    SYS_CTRL_PLL1                            0x00000050   Number         0  copier.o ABSOLUTE
    .ARM.Collect$$libinit$$00000006          0x00000052   Section        0  libinit2.o(.ARM.Collect$$libinit$$00000006)
    .ARM.Collect$$libinit$$00000008          0x00000052   Section        0  libinit2.o(.ARM.Collect$$libinit$$00000008)
    .ARM.Collect$$libinit$$0000000A          0x00000052   Section        0  libinit2.o(.ARM.Collect$$libinit$$0000000A)
    .ARM.Collect$$libinit$$0000000D          0x00000052   Section        0  libinit2.o(.ARM.Collect$$libinit$$0000000D)
    .ARM.Collect$$libinit$$0000000F          0x00000052   Section        0  libinit2.o(.ARM.Collect$$libinit$$0000000F)
    .ARM.Collect$$libinit$$00000011          0x00000052   Section        0  libinit2.o(.ARM.Collect$$libinit$$00000011)
    .ARM.Collect$$libinit$$00000013          0x00000052   Section        0  libinit2.o(.ARM.Collect$$libinit$$00000013)
    .ARM.Collect$$libinit$$00000015          0x00000052   Section        0  libinit2.o(.ARM.Collect$$libinit$$00000015)
    .ARM.Collect$$libinit$$00000017          0x00000052   Section        0  libinit2.o(.ARM.Collect$$libinit$$00000017)
    .ARM.Collect$$libinit$$00000019          0x00000052   Section        0  libinit2.o(.ARM.Collect$$libinit$$00000019)
    .ARM.Collect$$libinit$$0000001B          0x00000052   Section        0  libinit2.o(.ARM.Collect$$libinit$$0000001B)
    .ARM.Collect$$libinit$$0000001D          0x00000052   Section        0  libinit2.o(.ARM.Collect$$libinit$$0000001D)
    .ARM.Collect$$libinit$$0000001F          0x00000052   Section        0  libinit2.o(.ARM.Collect$$libinit$$0000001F)
    .ARM.Collect$$libinit$$00000021          0x00000052   Section        0  libinit2.o(.ARM.Collect$$libinit$$00000021)
    .ARM.Collect$$libinit$$00000028          0x00000052   Section        0  libinit2.o(.ARM.Collect$$libinit$$00000028)
    .ARM.Collect$$libinit$$0000002A          0x00000052   Section        0  libinit2.o(.ARM.Collect$$libinit$$0000002A)
    .ARM.Collect$$libinit$$0000002C          0x00000052   Section        0  libinit2.o(.ARM.Collect$$libinit$$0000002C)
    .ARM.Collect$$libinit$$0000002E          0x00000052   Section        0  libinit2.o(.ARM.Collect$$libinit$$0000002E)
    .ARM.Collect$$libinit$$0000002F          0x00000052   Section        2  libinit2.o(.ARM.Collect$$libinit$$0000002F)
    .ARM.Collect$$libshutdown$$00000000      0x00000054   Section        2  libshutdown.o(.ARM.Collect$$libshutdown$$00000000)
    SYS_CTRL_PLL2                            0x00000054   Number         0  start.o ABSOLUTE
    SYS_CTRL_PLL2                            0x00000054   Number         0  copier.o ABSOLUTE
    SYS_CTRL_PLL2                            0x00000054   Number         0  processor.o ABSOLUTE
    SYS_CTRL_PLL2                            0x00000054   Number         0  vectors.o ABSOLUTE
    .ARM.Collect$$libshutdown$$00000003      0x00000056   Section        0  libshutdown2.o(.ARM.Collect$$libshutdown$$00000003)
    .ARM.Collect$$libshutdown$$00000006      0x00000056   Section        0  libshutdown2.o(.ARM.Collect$$libshutdown$$00000006)
    .ARM.Collect$$libshutdown$$00000009      0x00000056   Section        0  libshutdown2.o(.ARM.Collect$$libshutdown$$00000009)
    .ARM.Collect$$libshutdown$$0000000B      0x00000056   Section        0  libshutdown2.o(.ARM.Collect$$libshutdown$$0000000B)
    .ARM.Collect$$libshutdown$$0000000E      0x00000056   Section        0  libshutdown2.o(.ARM.Collect$$libshutdown$$0000000E)
    .ARM.Collect$$libshutdown$$0000000F      0x00000056   Section        2  libshutdown2.o(.ARM.Collect$$libshutdown$$0000000F)
    .ARM.Collect$$rtentry$$00000000          0x00000058   Section        0  rtentry.o(.ARM.Collect$$rtentry$$00000000)
    .ARM.Collect$$rtentry$$00000002          0x00000058   Section        0  rtentry2.o(.ARM.Collect$$rtentry$$00000002)
    .ARM.Collect$$rtentry$$00000004          0x00000058   Section        8  rtentry4.o(.ARM.Collect$$rtentry$$00000004)
    .ARM.Collect$$rtentry$$00000009          0x00000060   Section        0  rtentry2.o(.ARM.Collect$$rtentry$$00000009)
    .ARM.Collect$$rtentry$$0000000A          0x00000060   Section        4  rtentry2.o(.ARM.Collect$$rtentry$$0000000A)
    SYS_CTRL_CLK_MUX_CTRL                    0x00000060   Number         0  copier.o ABSOLUTE
    SYS_CTRL_CLK_MUX_CTRL                    0x00000060   Number         0  start.o ABSOLUTE
    SYS_CTRL_CLK_MUX_CTRL                    0x00000060   Number         0  processor.o ABSOLUTE
    SYS_CTRL_CLK_MUX_CTRL                    0x00000060   Number         0  vectors.o ABSOLUTE
    .ARM.Collect$$rtentry$$0000000C          0x00000064   Section        0  rtentry2.o(.ARM.Collect$$rtentry$$0000000C)
    .ARM.Collect$$rtentry$$0000000D          0x00000064   Section       40  rtentry2.o(.ARM.Collect$$rtentry$$0000000D)
    IRQ_OFF                                  0x00000080   Number         0  vectors.o ABSOLUTE
    IRQ_OFF                                  0x00000080   Number         0  processor.o ABSOLUTE
    IRQ_OFF                                  0x00000080   Number         0  copier.o ABSOLUTE
    IRQ_OFF                                  0x00000080   Number         0  start.o ABSOLUTE
    .ARM.Collect$$rtexit$$00000000           0x0000008c   Section        0  rtexit.o(.ARM.Collect$$rtexit$$00000000)
    .ARM.Collect$$rtexit$$00000002           0x0000008c   Section        0  rtexit2.o(.ARM.Collect$$rtexit$$00000002)
    .ARM.Collect$$rtexit$$00000003           0x0000008c   Section        4  rtexit2.o(.ARM.Collect$$rtexit$$00000003)
    IVB_GRAND_CRC                            0x0000008c   Number         0  start.o ABSOLUTE
    IVB_GRAND_CRC                            0x0000008c   Number         0  copier.o ABSOLUTE
    IVB_GRAND_CRC                            0x0000008c   Number         0  vectors.o ABSOLUTE
    IVB_GRAND_CRC                            0x0000008c   Number         0  processor.o ABSOLUTE
    .ARM.Collect$$rtexit$$00000004           0x00000090   Section        4  rtexit2.o(.ARM.Collect$$rtexit$$00000004)
    IVB_MAGIC_NUMBER_PLACE                   0x00000090   Number         0  vectors.o ABSOLUTE
    IVB_MAGIC_NUMBER_PLACE                   0x00000090   Number         0  copier.o ABSOLUTE
    IVB_MAGIC_NUMBER_PLACE                   0x00000090   Number         0  start.o ABSOLUTE
    IVB_MAGIC_NUMBER_PLACE                   0x00000090   Number         0  processor.o ABSOLUTE
    .text                                    0x00000094   Section      112  pl340.o(.text)
    IVB_BLOCK_SIZE                           0x00000094   Number         0  copier.o ABSOLUTE
    IVB_BLOCK_SIZE                           0x00000094   Number         0  start.o ABSOLUTE
    IVB_BLOCK_SIZE                           0x00000094   Number         0  vectors.o ABSOLUTE
    IVB_BLOCK_SIZE                           0x00000094   Number         0  processor.o ABSOLUTE
    .text                                    0x00000104   Section      312  flood_sender.o(.text)
    .text                                    0x0000023c   Section      232  dma.o(.text)
    .text                                    0x00000324   Section     1244  eth_link.o(.text)
    FF_SPACE_SIZE                            0x00000404   Number         0  start.o ABSOLUTE
    FF_SPACE_SIZE                            0x00000404   Number         0  vectors.o ABSOLUTE
    FF_SPACE_SIZE                            0x00000404   Number         0  copier.o ABSOLUTE
    FF_SPACE_SIZE                            0x00000404   Number         0  processor.o ABSOLUTE
    IRQ_STACK_SIZE                           0x00000500   Number         0  processor.o ABSOLUTE
    IRQ_STACK_SIZE                           0x00000500   Number         0  copier.o ABSOLUTE
    IRQ_STACK_SIZE                           0x00000500   Number         0  vectors.o ABSOLUTE
    IRQ_STACK_SIZE                           0x00000500   Number         0  start.o ABSOLUTE
    SVC_STACK_SIZE                           0x00000500   Number         0  processor.o ABSOLUTE
    SVC_STACK_SIZE                           0x00000500   Number         0  copier.o ABSOLUTE
    SVC_STACK_SIZE                           0x00000500   Number         0  start.o ABSOLUTE
    SVC_STACK_SIZE                           0x00000500   Number         0  vectors.o ABSOLUTE
    .text                                    0x00000800   Section      772  flood_fill.o(.text)
    .text                                    0x00000b04   Section     2104  interrupt_service_routines.o(.text)
    VIC_OFFSET                               0x00000ff0   Number         0  copier.o ABSOLUTE
    VIC_OFFSET                               0x00000ff0   Number         0  start.o ABSOLUTE
    VIC_OFFSET                               0x00000ff0   Number         0  processor.o ABSOLUTE
    VIC_OFFSET                               0x00000ff0   Number         0  vectors.o ABSOLUTE
    .text                                    0x0000133c   Section     1020  peripheral_inits.o(.text)
    .text                                    0x00001738   Section      504  phy.o(.text)
    .text                                    0x00001930   Section      888  reg_test.o(.text)
    .text                                    0x00001ca8   Section     2872  main.o(.text)
    .text                                    0x000027e0   Section        4  use_no_semi.o(.text)
    .text                                    0x000027e4   Section       36  noretval__2printf.o(.text)
    .text                                    0x00002808   Section       76  _printf_pad.o(.text)
    .text                                    0x0000285c   Section      108  _printf_dec.o(.text)
    .text                                    0x000028d0   Section       88  _printf_hex_int.o(.text)
    .text                                    0x00002928   Section      320  __printf_flags_wp.o(.text)
    .text                                    0x00002a68   Section      100  rt_memcpy_w.o(.text)
    .text                                    0x00002acc   Section      380  aeabi_sdiv.o(.text)
    __arm_div8                               0x00002af8   ARM Code       0  aeabi_sdiv.o(.text)
    __arm_div4                               0x00002b28   ARM Code       0  aeabi_sdiv.o(.text)
    __arm_div_large                          0x00002b7c   ARM Code       0  aeabi_sdiv.o(.text)
    .text                                    0x00002c48   Section      172  _printf_intcommon.o(.text)
    .text                                    0x00002cf4   Section       48  _printf_char_common.o(.text)
    _printf_input_char                       0x00002cf5   Thumb Code    10  _printf_char_common.o(.text)
    .text                                    0x00002d24   Section       44  rtudiv10.o(.text)
    .text                                    0x00002d50   Section       96  sys_stackheap_outer.o(.text)
    .text                                    0x00002db0   Section       12  exit.o(.text)
    .text                                    0x00002dbc   Section       12  libspace.o(.text)
    .text_udiv                               0x00002dc8   Section       28  aeabi_sdiv.o(.text_udiv)
    UISH                                     0x00002de4   Section       16  embed_uish.o(UISH)
    heap_base                                0x00002de4   Data           4  embed_uish.o(UISH)
    heap_limit                               0x00002de8   Data           4  embed_uish.o(UISH)
    proc                                     0x00002dfc   Section      116  processor.o(proc)
    x$fpl$fpinit                             0x00002e70   Section        4  fpinit.o(x$fpl$fpinit)
    .constdata                               0x00002e74   Section      196  dma.o(.constdata)
    .constdata                               0x00002f38   Section       66  interrupt_service_routines.o(.constdata)
    .constdata                               0x00002f7c   Section      644  reg_test.o(.constdata)
    .constdata                               0x00003200   Section      216  main.o(.constdata)
    .constdata                               0x000032d8   Section       40  _printf_hex_int.o(.constdata)
    uc_hextab                                0x000032d8   Data          20  _printf_hex_int.o(.constdata)
    lc_hextab                                0x000032ec   Data          20  _printf_hex_int.o(.constdata)
    .constdata                               0x00003300   Section       17  __printf_flags_wp.o(.constdata)
    maptable                                 0x00003300   Data          17  __printf_flags_wp.o(.constdata)
    ITCM_VALIDATION_BLOCK                    0x00007f6c   Number         0  start.o ABSOLUTE
    ITCM_VALIDATION_BLOCK                    0x00007f6c   Number         0  processor.o ABSOLUTE
    ITCM_VALIDATION_BLOCK                    0x00007f6c   Number         0  copier.o ABSOLUTE
    ITCM_VALIDATION_BLOCK                    0x00007f6c   Number         0  vectors.o ABSOLUTE
    ITCM_SIZE                                0x00008000   Number         0  copier.o ABSOLUTE
    ITCM_SIZE                                0x00008000   Number         0  vectors.o ABSOLUTE
    ITCM_SIZE                                0x00008000   Number         0  processor.o ABSOLUTE
    ITCM_SIZE                                0x00008000   Number         0  start.o ABSOLUTE
    SYS_RAM_SIZE                             0x00008000   Number         0  start.o ABSOLUTE
    SYS_RAM_SIZE                             0x00008000   Number         0  vectors.o ABSOLUTE
    SYS_RAM_SIZE                             0x00008000   Number         0  copier.o ABSOLUTE
    SYS_RAM_SIZE                             0x00008000   Number         0  processor.o ABSOLUTE
    DTCM_SIZE                                0x00010000   Number         0  processor.o ABSOLUTE
    DTCM_SIZE                                0x00010000   Number         0  vectors.o ABSOLUTE
    DTCM_SIZE                                0x00010000   Number         0  copier.o ABSOLUTE
    DTCM_SIZE                                0x00010000   Number         0  start.o ABSOLUTE
    PLL_1_SETUP                              0x00060110   Number         0  processor.o ABSOLUTE
    PLL_1_SETUP                              0x00060110   Number         0  start.o ABSOLUTE
    PLL_1_SETUP                              0x00060110   Number         0  copier.o ABSOLUTE
    PLL_1_SETUP                              0x00060110   Number         0  vectors.o ABSOLUTE
    PLL_2_SETUP                              0x0007011a   Number         0  copier.o ABSOLUTE
    PLL_2_SETUP                              0x0007011a   Number         0  processor.o ABSOLUTE
    PLL_2_SETUP                              0x0007011a   Number         0  start.o ABSOLUTE
    PLL_2_SETUP                              0x0007011a   Number         0  vectors.o ABSOLUTE
    DMA_CMD_BLOCK_CRC_CHK                    0x00180000   Number         0  copier.o ABSOLUTE
    DMA_CMD_BLOCK_CRC_CHK                    0x00180000   Number         0  vectors.o ABSOLUTE
    DMA_CMD_BLOCK_CRC_CHK                    0x00180000   Number         0  start.o ABSOLUTE
    DMA_CMD_BLOCK_CRC_CHK                    0x00180000   Number         0  processor.o ABSOLUTE
    DMA_CMD_MASTER_CRC_CHK                   0x0018008c   Number         0  copier.o ABSOLUTE
    DMA_CMD_MASTER_CRC_CHK                   0x0018008c   Number         0  vectors.o ABSOLUTE
    DMA_CMD_MASTER_CRC_CHK                   0x0018008c   Number         0  start.o ABSOLUTE
    DMA_CMD_MASTER_CRC_CHK                   0x0018008c   Number         0  processor.o ABSOLUTE
    .data                                    0x00400000   Section       16  flood_fill.o(.data)
    DTCM_BASE                                0x00400000   Number         0  processor.o ABSOLUTE
    DTCM_BASE                                0x00400000   Number         0  vectors.o ABSOLUTE
    DTCM_BASE                                0x00400000   Number         0  start.o ABSOLUTE
    DTCM_BASE                                0x00400000   Number         0  copier.o ABSOLUTE
    .data                                    0x00400010   Section       64  globals.o(.data)
    .data                                    0x00400050   Section        8  main.o(.data)
    .bss                                     0x00400058   Section      512  flood_fill.o(.bss)
    .bss                                     0x00400258   Section     4064  globals.o(.bss)
    .bss                                     0x00401238   Section       96  libspace.o(.bss)
    DMAC                                     0x30000000   Number         0  start.o ABSOLUTE
    DMA_CTRL_BASE                            0x30000000   Number         0  processor.o ABSOLUTE
    DMA_CTRL_BASE                            0x30000000   Number         0  vectors.o ABSOLUTE
    DMA_CTRL_BASE                            0x30000000   Number         0  start.o ABSOLUTE
    DMA_CTRL_BASE                            0x30000000   Number         0  copier.o ABSOLUTE
    SECURITY_CODE                            0x5ec00000   Number         0  processor.o ABSOLUTE
    SECURITY_CODE                            0x5ec00000   Number         0  vectors.o ABSOLUTE
    SECURITY_CODE                            0x5ec00000   Number         0  start.o ABSOLUTE
    SECURITY_CODE                            0x5ec00000   Number         0  copier.o ABSOLUTE
    SD_RAM_BASE                              0x70000000   Number         0  start.o ABSOLUTE
    SD_RAM_BASE                              0x70000000   Number         0  processor.o ABSOLUTE
    SD_RAM_BASE                              0x70000000   Number         0  copier.o ABSOLUTE
    SD_RAM_BASE                              0x70000000   Number         0  vectors.o ABSOLUTE
    CLK_MUX_CTRL_SETUP                       0x80508821   Number         0  start.o ABSOLUTE
    CLK_MUX_CTRL_SETUP                       0x80508821   Number         0  copier.o ABSOLUTE
    CLK_MUX_CTRL_SETUP                       0x80508821   Number         0  processor.o ABSOLUTE
    CLK_MUX_CTRL_SETUP                       0x80508821   Number         0  vectors.o ABSOLUTE
    IVB_MAGIC_NUMBER                         0xc0ffee18   Number         0  processor.o ABSOLUTE
    IVB_MAGIC_NUMBER                         0xc0ffee18   Number         0  vectors.o ABSOLUTE
    IVB_MAGIC_NUMBER                         0xc0ffee18   Number         0  copier.o ABSOLUTE
    IVB_MAGIC_NUMBER                         0xc0ffee18   Number         0  start.o ABSOLUTE
    SYSC                                     0xe2000000   Number         0  start.o ABSOLUTE
    SYS_CTRL_BASE_BUFFERED                   0xe2000000   Number         0  copier.o ABSOLUTE
    SYS_CTRL_BASE_BUFFERED                   0xe2000000   Number         0  vectors.o ABSOLUTE
    SYS_CTRL_BASE_BUFFERED                   0xe2000000   Number         0  processor.o ABSOLUTE
    SYS_CTRL_BASE_BUFFERED                   0xe2000000   Number         0  start.o ABSOLUTE
    PL340_CONFIG_BASE                        0xf0000000   Number         0  start.o ABSOLUTE
    PL340_CONFIG_BASE                        0xf0000000   Number         0  vectors.o ABSOLUTE
    PL340_CONFIG_BASE                        0xf0000000   Number         0  processor.o ABSOLUTE
    PL340_CONFIG_BASE                        0xf0000000   Number         0  copier.o ABSOLUTE
    SYS_CTRL_BASE                            0xf2000000   Number         0  start.o ABSOLUTE
    SYS_CTRL_BASE                            0xf2000000   Number         0  vectors.o ABSOLUTE
    SYS_CTRL_BASE                            0xf2000000   Number         0  processor.o ABSOLUTE
    SYS_CTRL_BASE                            0xf2000000   Number         0  copier.o ABSOLUTE
    SYS_CTRL_BASE_UNBUFFERED                 0xf2000000   Number         0  copier.o ABSOLUTE
    SYS_CTRL_BASE_UNBUFFERED                 0xf2000000   Number         0  vectors.o ABSOLUTE
    SYS_CTRL_BASE_UNBUFFERED                 0xf2000000   Number         0  processor.o ABSOLUTE
    SYS_CTRL_BASE_UNBUFFERED                 0xf2000000   Number         0  start.o ABSOLUTE
    SYS_RAM_BASE                             0xf5000000   Number         0  vectors.o ABSOLUTE
    SYS_RAM_BASE                             0xf5000000   Number         0  copier.o ABSOLUTE
    SYS_RAM_BASE                             0xf5000000   Number         0  processor.o ABSOLUTE
    SYS_RAM_BASE                             0xf5000000   Number         0  start.o ABSOLUTE
    copier                                   0xf5007b00   Section       52  copier.o(copier)
    multiple_copy                            0xf5007b04   ARM Code       0  copier.o(copier)
    single_copy                              0xf5007b1c   ARM Code       0  copier.o(copier)
    FAILURE_LOG_BASE                         0xf5007b74   Number         0  copier.o ABSOLUTE
    FAILURE_LOG_BASE                         0xf5007b74   Number         0  start.o ABSOLUTE
    FAILURE_LOG_BASE                         0xf5007b74   Number         0  processor.o ABSOLUTE
    FAILURE_LOG_BASE                         0xf5007b74   Number         0  vectors.o ABSOLUTE
    CHIP_ID                                  0xf5007bbc   Number         0  start.o ABSOLUTE
    CHIP_ID                                  0xf5007bbc   Number         0  processor.o ABSOLUTE
    CHIP_ID                                  0xf5007bbc   Number         0  copier.o ABSOLUTE
    CHIP_ID                                  0xf5007bbc   Number         0  vectors.o ABSOLUTE
    DETECTED_SDRAM_INFO_BASE                 0xf5007bc0   Number         0  vectors.o ABSOLUTE
    DETECTED_SDRAM_INFO_BASE                 0xf5007bc0   Number         0  start.o ABSOLUTE
    DETECTED_SDRAM_INFO_BASE                 0xf5007bc0   Number         0  processor.o ABSOLUTE
    DETECTED_SDRAM_INFO_BASE                 0xf5007bc0   Number         0  copier.o ABSOLUTE
    MONITOR_HISTORY                          0xf5007bc8   Number         0  start.o ABSOLUTE
    MONITOR_HISTORY                          0xf5007bc8   Number         0  vectors.o ABSOLUTE
    MONITOR_HISTORY                          0xf5007bc8   Number         0  copier.o ABSOLUTE
    MONITOR_HISTORY                          0xf5007bc8   Number         0  processor.o ABSOLUTE
    MAILBOX_BASE                             0xf5007bcc   Number         0  vectors.o ABSOLUTE
    MAILBOX_BASE                             0xf5007bcc   Number         0  processor.o ABSOLUTE
    MAILBOX_BASE                             0xf5007bcc   Number         0  start.o ABSOLUTE
    MAILBOX_BASE                             0xf5007bcc   Number         0  copier.o ABSOLUTE
    FF_SPACE_BASE                            0xf5007bdc   Number         0  vectors.o ABSOLUTE
    FF_SPACE_BASE                            0xf5007bdc   Number         0  processor.o ABSOLUTE
    FF_SPACE_BASE                            0xf5007bdc   Number         0  start.o ABSOLUTE
    FF_SPACE_BASE                            0xf5007bdc   Number         0  copier.o ABSOLUTE
    ETH_PARAMS_BASE                          0xf5007fe0   Number         0  start.o ABSOLUTE
    ETH_PARAMS_BASE                          0xf5007fe0   Number         0  vectors.o ABSOLUTE
    ETH_PARAMS_BASE                          0xf5007fe0   Number         0  copier.o ABSOLUTE
    ETH_PARAMS_BASE                          0xf5007fe0   Number         0  processor.o ABSOLUTE
    start                                    0xffff0000   Section      960  start.o(start)
    boot_reset                               0xffff0060   ARM Code       4  start.o(start)
    normal_boot                              0xffff0060   ARM Code       0  start.o(start)
    boot_wait                                0xffff0090   ARM Code       4  start.o(start)
    boot_serial                              0xffff00a0   ARM Code       4  start.o(start)
    serial_boot                              0xffff00cc   ARM Code       4  start.o(start)
    scan_rom                                 0xffff00e0   ARM Code       4  start.o(start)
    read_block                               0xffff0100   ARM Code       4  start.o(start)
    ser_loop                                 0xffff011c   ARM Code       4  start.o(start)
    serial_read8                             0xffff0138   ARM Code       4  start.o(start)
    serial_read16                            0xffff0140   ARM Code       4  start.o(start)
    serial_read32                            0xffff0148   ARM Code       4  start.o(start)
    serial_read                              0xffff014c   ARM Code       4  start.o(start)
    rdl                                      0xffff0150   ARM Code       4  start.o(start)
    serial_addr32                            0xffff0178   ARM Code       4  start.o(start)
    wrl                                      0xffff0180   ARM Code       4  start.o(start)
    boot_introm                              0xffff01ac   ARM Code       0  start.o(start)
    stackinit                                0xffff0200   ARM Code       0  start.o(start)
    write_failure_log                        0xffff0244   ARM Code       0  start.o(start)
    set_chip_clock                           0xffff0260   ARM Code       0  start.o(start)
    dloop                                    0xffff0278   ARM Code       4  start.o(start)
    unexpected_exception_high                0xffff028c   ARM Code       0  start.o(start)
    ivb_checker                              0xffff0294   ARM Code       0  start.o(start)
    dmawait                                  0xffff02b4   ARM Code       4  start.o(start)
    ivbloop                                  0xffff030c   ARM Code       4  start.o(start)
    dmawait2                                 0xffff0338   ARM Code       0  start.o(start)
    !!!main                                  0xffff03c0   Section        8  __main.o(!!!main)
    !!!scatter                               0xffff03c8   Section       60  __scatter.o(!!!scatter)
    !!handler_copy                           0xffff0404   Section       40  __scatter_copy.o(!!handler_copy)
    !!handler_zi                             0xffff042c   Section       44  __scatter_zi.o(!!handler_zi)
    ramtest                                  0xffff0458   Section      292  ram_test.o(ramtest)
    pat_loop                                 0xffff046c   ARM Code       4  ram_test.o(ramtest)
    first_pat                                0xffff0564   Data           4  ram_test.o(ramtest)
    pat_end                                  0xffff057c   Data           0  ram_test.o(ramtest)

    Global Symbols

    Symbol Name                              Value     Ov Type        Size  Object(Section)

    BuildAttributes$$THM_ISAv2$ARM_ISAv5$E$P$S$PE$A:L22$X:L11$S22$IEEE1$IW$USESV6$~STKCKD$USESV7$~SHL$OSPACE$ROPI$EBA8$UX$STANDARDLIB$REQ8$EABIv2 0x00000000   Number         0  anon$$obj.o ABSOLUTE
    __ARM_use_no_argv                        0x00000000   Number         0  main.o ABSOLUTE
    _printf_flags                            0x00000000   Number         0  printf_stubs.o ABSOLUTE
    _printf_return_value                     0x00000000   Number         0  printf_stubs.o ABSOLUTE
    _printf_sizespec                         0x00000000   Number         0  printf_stubs.o ABSOLUTE
    _printf_widthprec                        0x00000000   Number         0  printf_stubs.o ABSOLUTE
    __ARM_exceptions_init                     - Undefined Weak Reference
    __alloca_initialize                       - Undefined Weak Reference
    __cpp_initialize__aeabi_                  - Undefined Weak Reference
    __cxa_finalize                            - Undefined Weak Reference
    __rt_locale                               - Undefined Weak Reference
    __sigvec_lookup                           - Undefined Weak Reference
    _atexit_init                              - Undefined Weak Reference
    _call_atexit_fns                          - Undefined Weak Reference
    _clock_init                               - Undefined Weak Reference
    _fp_trap_init                             - Undefined Weak Reference
    _fp_trap_shutdown                         - Undefined Weak Reference
    _get_lc_collate                           - Undefined Weak Reference
    _get_lc_ctype                             - Undefined Weak Reference
    _get_lc_monetary                          - Undefined Weak Reference
    _get_lc_numeric                           - Undefined Weak Reference
    _get_lc_time                              - Undefined Weak Reference
    _getenv_init                              - Undefined Weak Reference
    _handle_redirection                       - Undefined Weak Reference
    _init_alloc                               - Undefined Weak Reference
    _init_user_alloc                          - Undefined Weak Reference
    _initio                                   - Undefined Weak Reference
    _mutex_acquire                            - Undefined Weak Reference
    _mutex_release                            - Undefined Weak Reference
    _printf_truncate_signed                   - Undefined Weak Reference
    _printf_truncate_unsigned                 - Undefined Weak Reference
    _rand_init                                - Undefined Weak Reference
    _signal_finish                            - Undefined Weak Reference
    _signal_init                              - Undefined Weak Reference
    _terminate_alloc                          - Undefined Weak Reference
    _terminate_user_alloc                     - Undefined Weak Reference
    _terminateio                              - Undefined Weak Reference
    _printf_d                                0x0000002c   ARM Code       0  _printf_d.o(.ARM.Collect$$_printf_percent$$00000009)
    _printf_percent                          0x0000002c   ARM Code       0  _printf_percent.o(.ARM.Collect$$_printf_percent$$00000000)
    _printf_u                                0x00000034   ARM Code       0  _printf_u.o(.ARM.Collect$$_printf_percent$$0000000A)
    _printf_x                                0x0000003c   ARM Code       0  _printf_x.o(.ARM.Collect$$_printf_percent$$0000000C)
    _printf_percent_end                      0x00000044   ARM Code       0  _printf_percent_end.o(.ARM.Collect$$_printf_percent$$00000017)
    __rt_lib_init                            0x0000004d   Thumb Code     0  libinit.o(.ARM.Collect$$libinit$$00000000)
    __rt_lib_init_alloca_1                   0x00000053   Thumb Code     0  libinit2.o(.ARM.Collect$$libinit$$0000002A)
    __rt_lib_init_argv_1                     0x00000053   Thumb Code     0  libinit2.o(.ARM.Collect$$libinit$$00000028)
    __rt_lib_init_atexit_1                   0x00000053   Thumb Code     0  libinit2.o(.ARM.Collect$$libinit$$00000017)
    __rt_lib_init_clock_1                    0x00000053   Thumb Code     0  libinit2.o(.ARM.Collect$$libinit$$0000001D)
    __rt_lib_init_cpp_1                      0x00000053   Thumb Code     0  libinit2.o(.ARM.Collect$$libinit$$0000002E)
    __rt_lib_init_exceptions_1               0x00000053   Thumb Code     0  libinit2.o(.ARM.Collect$$libinit$$0000002C)
    __rt_lib_init_fp_trap_1                  0x00000053   Thumb Code     0  libinit2.o(.ARM.Collect$$libinit$$0000001B)
    __rt_lib_init_getenv_1                   0x00000053   Thumb Code     0  libinit2.o(.ARM.Collect$$libinit$$0000001F)
    __rt_lib_init_heap_1                     0x00000053   Thumb Code     0  libinit2.o(.ARM.Collect$$libinit$$00000006)
    __rt_lib_init_lc_collate_1               0x00000053   Thumb Code     0  libinit2.o(.ARM.Collect$$libinit$$0000000D)
    __rt_lib_init_lc_ctype_1                 0x00000053   Thumb Code     0  libinit2.o(.ARM.Collect$$libinit$$0000000F)
    __rt_lib_init_lc_monetary_1              0x00000053   Thumb Code     0  libinit2.o(.ARM.Collect$$libinit$$00000011)
    __rt_lib_init_lc_numeric_1               0x00000053   Thumb Code     0  libinit2.o(.ARM.Collect$$libinit$$00000013)
    __rt_lib_init_lc_time_1                  0x00000053   Thumb Code     0  libinit2.o(.ARM.Collect$$libinit$$00000015)
    __rt_lib_init_rand_1                     0x00000053   Thumb Code     0  libinit2.o(.ARM.Collect$$libinit$$0000000A)
    __rt_lib_init_return                     0x00000053   Thumb Code     0  libinit2.o(.ARM.Collect$$libinit$$0000002F)
    __rt_lib_init_signal_1                   0x00000053   Thumb Code     0  libinit2.o(.ARM.Collect$$libinit$$00000019)
    __rt_lib_init_stdio_1                    0x00000053   Thumb Code     0  libinit2.o(.ARM.Collect$$libinit$$00000021)
    __rt_lib_init_user_alloc_1               0x00000053   Thumb Code     0  libinit2.o(.ARM.Collect$$libinit$$00000008)
    __rt_lib_shutdown                        0x00000055   Thumb Code     0  libshutdown.o(.ARM.Collect$$libshutdown$$00000000)
    __rt_lib_shutdown_fp_trap_1              0x00000057   Thumb Code     0  libshutdown2.o(.ARM.Collect$$libshutdown$$00000006)
    __rt_lib_shutdown_heap_1                 0x00000057   Thumb Code     0  libshutdown2.o(.ARM.Collect$$libshutdown$$0000000E)
    __rt_lib_shutdown_return                 0x00000057   Thumb Code     0  libshutdown2.o(.ARM.Collect$$libshutdown$$0000000F)
    __rt_lib_shutdown_signal_1               0x00000057   Thumb Code     0  libshutdown2.o(.ARM.Collect$$libshutdown$$00000009)
    __rt_lib_shutdown_stdio_1                0x00000057   Thumb Code     0  libshutdown2.o(.ARM.Collect$$libshutdown$$00000003)
    __rt_lib_shutdown_user_alloc_1           0x00000057   Thumb Code     0  libshutdown2.o(.ARM.Collect$$libshutdown$$0000000B)
    __rt_entry                               0x00000058   ARM Code       0  rtentry.o(.ARM.Collect$$rtentry$$00000000)
    __rt_entry_presh_1                       0x00000058   ARM Code       0  rtentry2.o(.ARM.Collect$$rtentry$$00000002)
    __rt_entry_sh                            0x00000058   ARM Code       0  rtentry4.o(.ARM.Collect$$rtentry$$00000004)
    __rt_entry_li                            0x00000060   ARM Code       0  rtentry2.o(.ARM.Collect$$rtentry$$0000000A)
    __rt_entry_postsh_1                      0x00000060   ARM Code       0  rtentry2.o(.ARM.Collect$$rtentry$$00000009)
    __rt_entry_main                          0x00000064   ARM Code       0  rtentry2.o(.ARM.Collect$$rtentry$$0000000D)
    __rt_entry_postli_1                      0x00000064   ARM Code       0  rtentry2.o(.ARM.Collect$$rtentry$$0000000C)
    __rt_exit                                0x0000008c   ARM Code       0  rtexit.o(.ARM.Collect$$rtexit$$00000000)
    __rt_exit_ls                             0x0000008c   ARM Code       0  rtexit2.o(.ARM.Collect$$rtexit$$00000003)
    __rt_exit_prels_1                        0x0000008c   ARM Code       0  rtexit2.o(.ARM.Collect$$rtexit$$00000002)
    __rt_exit_exit                           0x00000090   ARM Code       0  rtexit2.o(.ARM.Collect$$rtexit$$00000004)
    pl340_init                               0x00000095   Thumb Code   104  pl340.o(.text)
    generate_check                           0x00000105   Thumb Code    92  flood_sender.o(.text)
    transmit                                 0x00000161   Thumb Code   152  flood_sender.o(.text)
    dma                                      0x0000023d   Thumb Code   172  dma.o(.text)
    setup_crc32_spinnaker2                   0x000002e9   Thumb Code    54  dma.o(.text)
    sendFrame                                0x00000325   Thumb Code   100  eth_link.o(.text)
    handleArpRequest                         0x00000389   Thumb Code   136  eth_link.o(.text)
    handlePingRequest                        0x00000411   Thumb Code   406  eth_link.o(.text)
    receive_frame                            0x000005a7   Thumb Code   160  eth_link.o(.text)
    initFrameHeaders                         0x00000647   Thumb Code   278  eth_link.o(.text)
    formatAndSendFrame                       0x0000075d   Thumb Code    42  eth_link.o(.text)
    send_hello_frame                         0x00000787   Thumb Code    16  eth_link.o(.text)
    send_itubotron_message                   0x00000797   Thumb Code    76  eth_link.o(.text)
    image_complete                           0x00000801   Thumb Code    46  flood_fill.o(.text)
    cc_ff_start                              0x0000082f   Thumb Code    78  flood_fill.o(.text)
    cc_ff_block_start                        0x0000087d   Thumb Code    58  flood_fill.o(.text)
    cc_ff_block_data                         0x000008b7   Thumb Code    54  flood_fill.o(.text)
    cc_ff_block_end                          0x000008ed   Thumb Code   140  flood_fill.o(.text)
    cc_ff_control                            0x00000979   Thumb Code    56  flood_fill.o(.text)
    eth_ff_start                             0x000009b1   Thumb Code    94  flood_fill.o(.text)
    eth_ff_block_data                        0x00000a0f   Thumb Code   104  flood_fill.o(.text)
    eth_ff_control                           0x00000a77   Thumb Code    44  flood_fill.o(.text)
    cc_rx_isr                                0x00000b04   ARM Code     452  interrupt_service_routines.o(.text)
    eth_rx_isr                               0x00000cc8   ARM Code     988  interrupt_service_routines.o(.text)
    sys_ctrl_isr                             0x000010a4   ARM Code     364  interrupt_service_routines.o(.text)
    timer_isr                                0x00001210   ARM Code     300  interrupt_service_routines.o(.text)
    init_comms_ctrl                          0x0000133d   Thumb Code    14  peripheral_inits.o(.text)
    init_DMA_ctrl                            0x0000134b   Thumb Code    22  peripheral_inits.o(.text)
    init_ethernet_MII                        0x00001361   Thumb Code   268  peripheral_inits.o(.text)
    init_phy                                 0x0000146d   Thumb Code    24  peripheral_inits.o(.text)
    init_router                              0x00001485   Thumb Code   182  peripheral_inits.o(.text)
    init_timer                               0x0000153b   Thumb Code    52  peripheral_inits.o(.text)
    init_watchdog                            0x0000156f   Thumb Code    28  peripheral_inits.o(.text)
    init_VIC                                 0x0000158b   Thumb Code   182  peripheral_inits.o(.text)
    delay                                    0x00001739   Thumb Code    12  phy.o(.text)
    phy_shift_in                             0x00001745   Thumb Code    64  phy.o(.text)
    phy_shift_out                            0x00001785   Thumb Code    80  phy.o(.text)
    phy_read                                 0x000017d5   Thumb Code    60  phy.o(.text)
    phy_write                                0x00001811   Thumb Code    52  phy.o(.text)
    test_phy                                 0x00001845   Thumb Code   112  phy.o(.text)
    print_phy_register_table                 0x000018b5   Thumb Code    50  phy.o(.text)
    reg_test                                 0x00001931   Thumb Code   340  reg_test.o(.text)
    test_chip_peripherals                    0x00001a85   Thumb Code    94  reg_test.o(.text)
    test_processor_peripherals               0x00001ae3   Thumb Code    76  reg_test.o(.text)
    test_sdram                               0x00001b2f   Thumb Code   154  reg_test.o(.text)
    iputc_eth                                0x00001ca9   Thumb Code    68  main.o(.text)
    iputc_cc                                 0x00001ced   Thumb Code   126  main.o(.text)
    itubecchandler                           0x00001d6b   Thumb Code    44  main.o(.text)
    fputc                                    0x00001d97   Thumb Code    12  main.o(.text)
    _sys_exit                                0x00001da3   Thumb Code     4  main.o(.text)
    init_tube_port                           0x00001da7   Thumb Code    26  main.o(.text)
    dr_tx_byte                               0x00001dc1   Thumb Code   108  main.o(.text)
    arbitrate_monitor                        0x00001e2d   Thumb Code   186  main.o(.text)
    boot_processor                           0x00001ee7   Thumb Code   244  main.o(.text)
    main                                     0x00001fdb   Thumb Code  2054  main.o(.text)
    __I$use$semihosting                      0x000027e0   ARM Code       0  use_no_semi.o(.text)
    __use_no_semihosting_swi                 0x000027e0   ARM Code       4  use_no_semi.o(.text)
    __2printf                                0x000027e5   Thumb Code    26  noretval__2printf.o(.text)
    _printf_pre_padding                      0x00002809   Thumb Code    42  _printf_pad.o(.text)
    _printf_post_padding                     0x00002833   Thumb Code    34  _printf_pad.o(.text)
    Inline ARM to Thumb Veneer to _printf_int_dec 0x00002854   ARM Code       8  _printf_dec.o(.text)
    _printf_int_dec                          0x0000285d   Thumb Code    90  _printf_dec.o(.text)
    Inline ARM to Thumb Veneer to _printf_int_hex 0x000028c8   ARM Code       8  _printf_hex_int.o(.text)
    _printf_int_hex                          0x000028d1   Thumb Code    84  _printf_hex_int.o(.text)
    _printf_longlong_hex                     0x000028d1   Thumb Code     0  _printf_hex_int.o(.text)
    __printf                                 0x00002929   Thumb Code   316  __printf_flags_wp.o(.text)
    __aeabi_memcpy4                          0x00002a68   ARM Code       0  rt_memcpy_w.o(.text)
    __aeabi_memcpy8                          0x00002a68   ARM Code       0  rt_memcpy_w.o(.text)
    __rt_memcpy_w                            0x00002a68   ARM Code     100  rt_memcpy_w.o(.text)
    _memcpy_lastbytes_aligned                0x00002ab4   ARM Code       0  rt_memcpy_w.o(.text)
    __aeabi_idiv                             0x00002acc   ARM Code       0  aeabi_sdiv.o(.text)
    __aeabi_idivmod                          0x00002acc   ARM Code     380  aeabi_sdiv.o(.text)
    _printf_int_common                       0x00002c49   Thumb Code   172  _printf_intcommon.o(.text)
    _printf_char_common                      0x00002cff   Thumb Code    34  _printf_char_common.o(.text)
    __rt_udiv10                              0x00002d24   ARM Code      44  rtudiv10.o(.text)
    __user_setup_stackheap                   0x00002d50   ARM Code      96  sys_stackheap_outer.o(.text)
    exit                                     0x00002db1   Thumb Code    12  exit.o(.text)
    __user_libspace                          0x00002dbc   ARM Code      12  libspace.o(.text)
    __user_perproc_libspace                  0x00002dbc   ARM Code       0  libspace.o(.text)
    __user_perthread_libspace                0x00002dbc   ARM Code       0  libspace.o(.text)
    __aeabi_uidiv                            0x00002dc8   ARM Code       0  aeabi_sdiv.o(.text_udiv)
    __aeabi_uidivmod                         0x00002dc8   ARM Code      28  aeabi_sdiv.o(.text_udiv)
    __user_initial_stackheap                 0x00002dec   ARM Code       8  embed_uish.o(UISH)
    Long ARM to ARM Veneer to execute_image_protected 0x00002df4   ARM Code       8  anon$$obj.o(Veneer$$Code)
    change_to_low_vectors                    0x00002dfc   ARM Code       0  processor.o(proc)
    disable_clock                            0x00002e0c   ARM Code       0  processor.o(proc)
    disable_interrupts                       0x00002e34   ARM Code       0  processor.o(proc)
    enable_interrupts                        0x00002e44   ARM Code       0  processor.o(proc)
    read_CPSR                                0x00002e54   ARM Code       0  processor.o(proc)
    wait_for_interrupt                       0x00002e5c   ARM Code       0  processor.o(proc)
    __fplib_config_pureend_doubles           0x00002e70   ARM Code       0  fpinit.o(x$fpl$fpinit)
    _fp_init                                 0x00002e70   ARM Code       4  fpinit.o(x$fpl$fpinit)
    rw_pat                                   0x00002f7c   Data          16  reg_test.o(.constdata)
    timer_test                               0x00002f8c   Data          56  reg_test.o(.constdata)
    comms_ctrl_test                          0x00002fc4   Data          48  reg_test.o(.constdata)
    DMA_ctrl_test                            0x00002ff4   Data          76  reg_test.o(.constdata)
    VIC_test                                 0x00003040   Data          44  reg_test.o(.constdata)
    router_test                              0x0000306c   Data          52  reg_test.o(.constdata)
    eth_MII_test                             0x000030a0   Data          80  reg_test.o(.constdata)
    watchdog_test                            0x000030f0   Data          36  reg_test.o(.constdata)
    sys_ctrl_test                            0x00003114   Data          44  reg_test.o(.constdata)
    PL340_test                               0x00003140   Data         192  reg_test.o(.constdata)
    pl340_data                               0x00003200   Data          64  main.o(.constdata)
    ff_block_count                           0x00400000   Data           4  flood_fill.o(.data)
    ff_current_block                         0x00400004   Data           4  flood_fill.o(.data)
    ff_status                                0x00400008   Data           4  flood_fill.o(.data)
    ff_word_count                            0x0040000c   Data           4  flood_fill.o(.data)
    time                                     0x00400010   Data           4  globals.o(.data)
    destinationMACAddressLS                  0x00400014   Data           4  globals.o(.data)
    destinationMACAddressHS                  0x00400018   Data           4  globals.o(.data)
    sourceMACAddressLS                       0x0040001c   Data           4  globals.o(.data)
    sourceMACAddressHS                       0x00400020   Data           4  globals.o(.data)
    sourceIPAddress                          0x00400024   Data           4  globals.o(.data)
    destinationIPAddress                     0x00400028   Data           4  globals.o(.data)
    macDestAddressConfigured                 0x0040002c   Data           4  globals.o(.data)
    FFTarget                                 0x00400030   Data           4  globals.o(.data)
    rxFrameSize                              0x00400034   Data           4  globals.o(.data)
    EthPacketID                              0x00400038   Data           2  globals.o(.data)
    itubotroncount                           0x0040003c   Data           4  globals.o(.data)
    itubotrondataoverflow                    0x00400040   Data           2  globals.o(.data)
    last_flash                               0x00400044   Data           4  globals.o(.data)
    LED_FLASH_INTERVAL                       0x00400048   Data           4  globals.o(.data)
    spinnakerDataSize                        0x0040004c   Data           4  globals.o(.data)
    __stdout                                 0x00400050   Data           4  main.o(.data)
    __stdin                                  0x00400054   Data           4  main.o(.data)
    ff_blocks_received                       0x00400058   Data         256  flood_fill.o(.bss)
    ff_words_received                        0x00400158   Data         256  flood_fill.o(.bss)
    rx_frame                                 0x00400258   Data        1520  globals.o(.bss)
    tx_frame                                 0x00400848   Data        1520  globals.o(.bss)
    itubotrondata                            0x00400e38   Data        1024  globals.o(.bss)
    __libspace_start                         0x00401238   Data          96  libspace.o(.bss)
    Image$$HEAP$$ZI$$Base                    0x00401298   Number         0  anon$$obj.o(HEAP.bss)
    __temporary_stack_top$libspace           0x00401298   Data           0  libspace.o(.bss)
    Image$$HEAP$$ZI$$Limit                   0x00401798   Number         0  anon$$obj.o(HEAP.bss)
    Image$$STACKS$$ZI$$Limit                 0x00401c98   Number         0  anon$$obj.o(STACKS.bss)
    execute_image_protected                  0xf5007b00   ARM Code       0  copier.o(copier)
    reset                                    0xffff0020   ARM Code       0  start.o(start)
    dputc                                    0xffff0224   ARM Code       4  start.o(start)
    boot_fail                                0xffff0230   ARM Code       0  start.o(start)
    stack_base                               0xffff0390   Data           4  start.o(start)
    image_end                                0xffff0394   Data           4  start.o(start)
    __main                                   0xffff03c0   ARM Code       8  __main.o(!!!main)
    __scatterload                            0xffff03c8   ARM Code       0  __scatter.o(!!!scatter)
    __scatterload_rt2                        0xffff03c8   ARM Code      52  __scatter.o(!!!scatter)
    __scatterload_null                       0xffff03dc   ARM Code       0  __scatter.o(!!!scatter)
    __scatterload_copy                       0xffff0404   ARM Code      40  __scatter_copy.o(!!handler_copy)
    __scatterload_zeroinit                   0xffff042c   ARM Code      44  __scatter_zi.o(!!handler_zi)
    ram_test_c                               0xffff0458   ARM Code       4  ram_test.o(ramtest)
    ram_test                                 0xffff0464   ARM Code       4  ram_test.o(ramtest)
    Region$$Table$$Base                      0xffff057c   Number         0  anon$$obj.o(Region$$Table)
    Region$$Table$$Limit                     0xffff05bc   Number         0  anon$$obj.o(Region$$Table)



==============================================================================

Memory Map of the image

  Image Entry point : 0xffff0000

  Load Region ROM_LOAD (Base: 0xffff0000, Size: 0x0000395c, Max: 0xffffffff, ABSOLUTE)

    Execution Region ROM_EXEC (Base: 0xffff0000, Size: 0x000005bc, Max: 0xffffffff, ABSOLUTE)

    Base Addr    Size         Type   Attr      Idx    E Section Name        Object

    0xffff0000   0x000003c0   Code   RO          291  * start               start.o
    0xffff03c0   0x00000008   Code   RO          372  * !!!main             __main.o(c_5.l)
    0xffff03c8   0x0000003c   Code   RO          548    !!!scatter          __scatter.o(c_5.l)
    0xffff0404   0x00000028   Code   RO          550    !!handler_copy      __scatter_copy.o(c_5.l)
    0xffff042c   0x0000002c   Code   RO          552    !!handler_zi        __scatter_zi.o(c_5.l)
    0xffff0458   0x00000124   Code   RO          229    ramtest             ram_test.o
    0xffff057c   0x00000040   Data   RO          546    Region$$Table       anon$$obj.o


    Execution Region I-TCM (Base: 0x00000000, Size: 0x00003314, Max: 0x00008000, ABSOLUTE)

    Base Addr    Size         Type   Attr      Idx    E Section Name        Object

    0x00000000   0x0000002c   Code   RO          294  * vectors             vectors.o
    0x0000002c   0x00000000   Code   RO          353    .ARM.Collect$$_printf_percent$$00000000  _printf_percent.o(c_5.l)
    0x0000002c   0x00000008   Code   RO          351    .ARM.Collect$$_printf_percent$$00000009  _printf_d.o(c_5.l)
    0x00000034   0x00000008   Code   RO          352    .ARM.Collect$$_printf_percent$$0000000A  _printf_u.o(c_5.l)
    0x0000003c   0x00000008   Code   RO          350    .ARM.Collect$$_printf_percent$$0000000C  _printf_x.o(c_5.l)
    0x00000044   0x00000008   Code   RO          384    .ARM.Collect$$_printf_percent$$00000017  _printf_percent_end.o(c_5.l)
    0x0000004c   0x00000006   Code   RO          427    .ARM.Collect$$libinit$$00000000  libinit.o(c_5.l)
    0x00000052   0x00000000   Code   RO          441    .ARM.Collect$$libinit$$00000006  libinit2.o(c_5.l)
    0x00000052   0x00000000   Code   RO          443    .ARM.Collect$$libinit$$00000008  libinit2.o(c_5.l)
    0x00000052   0x00000000   Code   RO          445    .ARM.Collect$$libinit$$0000000A  libinit2.o(c_5.l)
    0x00000052   0x00000000   Code   RO          448    .ARM.Collect$$libinit$$0000000D  libinit2.o(c_5.l)
    0x00000052   0x00000000   Code   RO          450    .ARM.Collect$$libinit$$0000000F  libinit2.o(c_5.l)
    0x00000052   0x00000000   Code   RO          452    .ARM.Collect$$libinit$$00000011  libinit2.o(c_5.l)
    0x00000052   0x00000000   Code   RO          454    .ARM.Collect$$libinit$$00000013  libinit2.o(c_5.l)
    0x00000052   0x00000000   Code   RO          456    .ARM.Collect$$libinit$$00000015  libinit2.o(c_5.l)
    0x00000052   0x00000000   Code   RO          458    .ARM.Collect$$libinit$$00000017  libinit2.o(c_5.l)
    0x00000052   0x00000000   Code   RO          460    .ARM.Collect$$libinit$$00000019  libinit2.o(c_5.l)
    0x00000052   0x00000000   Code   RO          462    .ARM.Collect$$libinit$$0000001B  libinit2.o(c_5.l)
    0x00000052   0x00000000   Code   RO          464    .ARM.Collect$$libinit$$0000001D  libinit2.o(c_5.l)
    0x00000052   0x00000000   Code   RO          466    .ARM.Collect$$libinit$$0000001F  libinit2.o(c_5.l)
    0x00000052   0x00000000   Code   RO          468    .ARM.Collect$$libinit$$00000021  libinit2.o(c_5.l)
    0x00000052   0x00000000   Code   RO          472    .ARM.Collect$$libinit$$00000028  libinit2.o(c_5.l)
    0x00000052   0x00000000   Code   RO          474    .ARM.Collect$$libinit$$0000002A  libinit2.o(c_5.l)
    0x00000052   0x00000000   Code   RO          476    .ARM.Collect$$libinit$$0000002C  libinit2.o(c_5.l)
    0x00000052   0x00000000   Code   RO          478    .ARM.Collect$$libinit$$0000002E  libinit2.o(c_5.l)
    0x00000052   0x00000002   Code   RO          479    .ARM.Collect$$libinit$$0000002F  libinit2.o(c_5.l)
    0x00000054   0x00000002   Code   RO          506    .ARM.Collect$$libshutdown$$00000000  libshutdown.o(c_5.l)
    0x00000056   0x00000000   Code   RO          533    .ARM.Collect$$libshutdown$$00000003  libshutdown2.o(c_5.l)
    0x00000056   0x00000000   Code   RO          536    .ARM.Collect$$libshutdown$$00000006  libshutdown2.o(c_5.l)
    0x00000056   0x00000000   Code   RO          539    .ARM.Collect$$libshutdown$$00000009  libshutdown2.o(c_5.l)
    0x00000056   0x00000000   Code   RO          541    .ARM.Collect$$libshutdown$$0000000B  libshutdown2.o(c_5.l)
    0x00000056   0x00000000   Code   RO          544    .ARM.Collect$$libshutdown$$0000000E  libshutdown2.o(c_5.l)
    0x00000056   0x00000002   Code   RO          545    .ARM.Collect$$libshutdown$$0000000F  libshutdown2.o(c_5.l)
    0x00000058   0x00000000   Code   RO          374    .ARM.Collect$$rtentry$$00000000  rtentry.o(c_5.l)
    0x00000058   0x00000000   Code   RO          392    .ARM.Collect$$rtentry$$00000002  rtentry2.o(c_5.l)
    0x00000058   0x00000008   Code   RO          407    .ARM.Collect$$rtentry$$00000004  rtentry4.o(c_5.l)
    0x00000060   0x00000000   Code   RO          394    .ARM.Collect$$rtentry$$00000009  rtentry2.o(c_5.l)
    0x00000060   0x00000004   Code   RO          395    .ARM.Collect$$rtentry$$0000000A  rtentry2.o(c_5.l)
    0x00000064   0x00000000   Code   RO          397    .ARM.Collect$$rtentry$$0000000C  rtentry2.o(c_5.l)
    0x00000064   0x00000028   Code   RO          398    .ARM.Collect$$rtentry$$0000000D  rtentry2.o(c_5.l)
    0x0000008c   0x00000000   Code   RO          431    .ARM.Collect$$rtexit$$00000000  rtexit.o(c_5.l)
    0x0000008c   0x00000000   Code   RO          483    .ARM.Collect$$rtexit$$00000002  rtexit2.o(c_5.l)
    0x0000008c   0x00000004   Code   RO          484    .ARM.Collect$$rtexit$$00000003  rtexit2.o(c_5.l)
    0x00000090   0x00000004   Code   RO          485    .ARM.Collect$$rtexit$$00000004  rtexit2.o(c_5.l)
    0x00000094   0x00000070   Code   RO           62    .text               pl340.o
    0x00000104   0x00000138   Code   RO           84    .text               flood_sender.o
    0x0000023c   0x000000e8   Code   RO          112    .text               dma.o
    0x00000324   0x000004dc   Code   RO          129    .text               eth_link.o
    0x00000800   0x00000304   Code   RO          141    .text               flood_fill.o
    0x00000b04   0x00000838   Code   RO          157    .text               interrupt_service_routines.o
    0x0000133c   0x000003fc   Code   RO          199    .text               peripheral_inits.o
    0x00001738   0x000001f8   Code   RO          214    .text               phy.o
    0x00001930   0x00000378   Code   RO          232    .text               reg_test.o
    0x00001ca8   0x00000b38   Code   RO          250    .text               main.o
    0x000027e0   0x00000004   Code   RO          299    .text               use_no_semi.o(c_5.l)
    0x000027e4   0x00000024   Code   RO          303    .text               noretval__2printf.o(c_5.l)
    0x00002808   0x0000004c   Code   RO          307    .text               _printf_pad.o(c_5.l)
    0x00002854   0x00000008   Ven    RO          309    .text               _printf_dec.o(c_5.l)
    0x0000285c   0x0000006c   Code   RO          309    .text               _printf_dec.o(c_5.l)
    0x000028c8   0x00000008   Ven    RO          314    .text               _printf_hex_int.o(c_5.l)
    0x000028d0   0x00000058   Code   RO          314    .text               _printf_hex_int.o(c_5.l)
    0x00002928   0x00000140   Code   RO          342    .text               __printf_flags_wp.o(c_5.l)
    0x00002a68   0x00000064   Code   RO          354    .text               rt_memcpy_w.o(c_5.l)
    0x00002acc   0x0000017c   Code   RO          356    .text               aeabi_sdiv.o(c_5.l)
    0x00002c48   0x000000ac   Code   RO          380    .text               _printf_intcommon.o(c_5.l)
    0x00002cf4   0x00000030   Code   RO          382    .text               _printf_char_common.o(c_5.l)
    0x00002d24   0x0000002c   Code   RO          389    .text               rtudiv10.o(c_5.l)
    0x00002d50   0x00000060   Code   RO          413    .text               sys_stackheap_outer.o(c_5.l)
    0x00002db0   0x0000000c   Code   RO          415    .text               exit.o(c_5.l)
    0x00002dbc   0x0000000c   Code   RO          428    .text               libspace.o(c_5.l)
    0x00002dc8   0x0000001c   Code   RO          357    .text_udiv          aeabi_sdiv.o(c_5.l)
    0x00002de4   0x00000010   Code   RO          125    UISH                embed_uish.o
    0x00002df4   0x00000008   Ven    RO          556    Veneer$$Code        anon$$obj.o
    0x00002dfc   0x00000074   Code   RO          226    proc                processor.o
    0x00002e70   0x00000004   Code   RO          480    x$fpl$fpinit        fpinit.o(fz_5s.l)
    0x00002e74   0x000000c4   Data   RO          113    .constdata          dma.o
    0x00002f38   0x00000042   Data   RO          158    .constdata          interrupt_service_routines.o
    0x00002f7a   0x00000002   PAD
    0x00002f7c   0x00000284   Data   RO          233    .constdata          reg_test.o
    0x00003200   0x000000d8   Data   RO          251    .constdata          main.o
    0x000032d8   0x00000028   Data   RO          315    .constdata          _printf_hex_int.o(c_5.l)
    0x00003300   0x00000011   Data   RO          343    .constdata          __printf_flags_wp.o(c_5.l)


    Execution Region D-TCM (Base: 0x00400000, Size: 0x00001298, Max: 0x00008000, ABSOLUTE)

    Base Addr    Size         Type   Attr      Idx    E Section Name        Object

    0x00400000   0x00000010   Data   RW          143    .data               flood_fill.o
    0x00400010   0x00000040   Data   RW          186    .data               globals.o
    0x00400050   0x00000008   Data   RW          252    .data               main.o
    0x00400058   0x00000200   Zero   RW          142    .bss                flood_fill.o
    0x00400258   0x00000fe0   Zero   RW          185    .bss                globals.o
    0x00401238   0x00000060   Zero   RW          429    .bss                libspace.o(c_5.l)


    Execution Region HEAP (Base: 0x00401298, Size: 0x00000500, Max: 0x00000500, ABSOLUTE, UNINIT)

    Base Addr    Size         Type   Attr      Idx    E Section Name        Object

    0x00401298   0x00000500   Zero   RW            1    HEAP.bss            anon$$obj.o


    Execution Region STACKS (Base: 0x00401798, Size: 0x00000500, Max: 0x00000500, ABSOLUTE, UNINIT)

    Base Addr    Size         Type   Attr      Idx    E Section Name        Object

    0x00401798   0x00000500   Zero   RW            2    STACKS.bss          anon$$obj.o


    Execution Region SDRAM (Base: 0x70000000, Size: 0x08000000, Max: 0x08000000, ABSOLUTE, UNINIT)

    Base Addr    Size         Type   Attr      Idx    E Section Name        Object

    0x70000000   0x08000000   Zero   RW            3    SDRAM.bss           anon$$obj.o


    Execution Region SYSRAM (Base: 0xf5007b00, Size: 0x00000034, Max: 0x00000050, ABSOLUTE)

    Base Addr    Size         Type   Attr      Idx    E Section Name        Object

    0xf5007b00   0x00000034   Code   RO           96    copier              copier.o

